; Function Attrs: mustprogress nofree norecurse nosync nounwind willreturn memory(none) uwtable
define { i64, i64 } @ZSTD_cParam_getBounds(i32 noundef %0) local_unnamed_addr #0 {
  switch i32 %0, label %21 [
    i32 100, label %2
    i32 101, label %22
    i32 102, label %3
    i32 103, label %3
    i32 104, label %4
    i32 105, label %5
    i32 106, label %6
    i32 107, label %7
    i32 200, label %8
    i32 201, label %8
    i32 202, label %8
    i32 400, label %9
    i32 401, label %10
    i32 402, label %11
    i32 1005, label %8
    i32 160, label %12
    i32 161, label %3
    i32 162, label %13
    i32 163, label %14
    i32 164, label %15
    i32 500, label %8
    i32 1000, label %8
    i32 10, label %8
    i32 1001, label %16
    i32 1002, label %12
    i32 130, label %17
    i32 1004, label %18
    i32 1006, label %8
    i32 1007, label %8
    i32 1008, label %8
    i32 1009, label %8
    i32 1010, label %12
    i32 1017, label %19
    i32 1011, label %12
    i32 1012, label %8
    i32 1013, label %12
    i32 1014, label %8
    i32 1015, label %20
    i32 1016, label %12
  ]

2:                                                ; preds = %1
  br label %22

3:                                                ; preds = %1, %1, %1
  br label %22

4:                                                ; preds = %1
  br label %22

5:                                                ; preds = %1
  br label %22

6:                                                ; preds = %1
  br label %22

7:                                                ; preds = %1
  br label %22

8:                                                ; preds = %1, %1, %1, %1, %1, %1, %1, %1, %1, %1, %1, %1, %1
  br label %22

9:                                                ; preds = %1
  br label %22

10:                                               ; preds = %1
  br label %22

11:                                               ; preds = %1
  br label %22

12:                                               ; preds = %1, %1, %1, %1, %1, %1
  br label %22

13:                                               ; preds = %1
  br label %22

14:                                               ; preds = %1
  br label %22

15:                                               ; preds = %1
  br label %22

16:                                               ; preds = %1
  br label %22

17:                                               ; preds = %1
  br label %22

18:                                               ; preds = %1
  br label %22

19:                                               ; preds = %1
  br label %22

20:                                               ; preds = %1
  br label %22

21:                                               ; preds = %1
  br label %22

22:                                               ; preds = %1, %21, %20, %19, %18, %17, %16, %15, %14, %13, %12, %11, %10, %9, %8, %7, %6, %5, %4, %3, %2
  %.sroa.3.0 = phi i64 [ 0, %21 ], [ 562949953422336, %20 ], [ 25769803776, %19 ], [ 9223372032559808512, %18 ], [ 562949953422652, %17 ], [ 12884901888, %16 ], [ 107374182400, %15 ], [ 34359738369, %14 ], [ 17592186044420, %13 ], [ 8589934592, %12 ], [ 38654705664, %11 ], [ 4611686018427387904, %10 ], [ 1099511627776, %9 ], [ 4294967296, %8 ], [ 38654705665, %7 ], [ 562949953421312, %6 ], [ 30064771075, %5 ], [ 128849018881, %4 ], [ 128849018886, %3 ], [ 98784116736, %2 ], [ 133143986186, %1 ]
  %.sroa.0.0 = phi i64 [ -40, %21 ], [ 0, %20 ], [ 0, %19 ], [ 0, %18 ], [ 0, %17 ], [ 0, %16 ], [ 0, %15 ], [ 0, %14 ], [ 0, %13 ], [ 0, %12 ], [ 0, %11 ], [ 0, %10 ], [ 0, %9 ], [ 0, %8 ], [ 0, %7 ], [ 0, %6 ], [ 0, %5 ], [ 0, %4 ], [ 0, %3 ], [ 0, %2 ], [ 0, %1 ]
  %.fca.0.insert = insertvalue { i64, i64 } poison, i64 %.sroa.0.0, 0
  %.fca.1.insert = insertvalue { i64, i64 } %.fca.0.insert, i64 %.sroa.3.0, 1
  ret { i64, i64 } %.fca.1.insert
}